target datalayout = "e-m:e-p270:32:32-p271:32:32-p272:64:64-i64:64-i128:128-f80:128-n8:16:32:64-S128"
target triple = "x86_64-pc-linux-gnu"

%struct.ident_t = type { i32, i32, i32, i32, ptr }
%"class.ncnn::Quantize" = type { %"class.ncnn::Layer", i32, %"class.ncnn::Mat" }
%"class.ncnn::Layer" = type { ptr, i8, i8, i8, i8, i8, i8, i8, i8, i8, i8, i8, i8, i8, i8, i8, i8, i8, i8, i8, i8, i32, ptr, i32, %"class.std::__cxx11::basic_string", %"class.std::__cxx11::basic_string", %"class.std::vector", %"class.std::vector", %"class.std::vector.3", %"class.std::vector.3" }
%"class.std::__cxx11::basic_string" = type { %"struct.std::__cxx11::basic_string<char>::_Alloc_hider", i64, %union.anon }
%"struct.std::__cxx11::basic_string<char>::_Alloc_hider" = type { ptr }
%union.anon = type { i64, [8 x i8] }
%"class.std::vector" = type { %"struct.std::_Vector_base" }
%"struct.std::_Vector_base" = type { %"struct.std::_Vector_base<int, std::allocator<int>>::_Vector_impl" }
%"struct.std::_Vector_base<int, std::allocator<int>>::_Vector_impl" = type { %"struct.std::_Vector_base<int, std::allocator<int>>::_Vector_impl_data" }
%"struct.std::_Vector_base<int, std::allocator<int>>::_Vector_impl_data" = type { ptr, ptr, ptr }
%"class.std::vector.3" = type { %"struct.std::_Vector_base.4" }
%"struct.std::_Vector_base.4" = type { %"struct.std::_Vector_base<ncnn::Mat, std::allocator<ncnn::Mat>>::_Vector_impl" }
%"struct.std::_Vector_base<ncnn::Mat, std::allocator<ncnn::Mat>>::_Vector_impl" = type { %"struct.std::_Vector_base<ncnn::Mat, std::allocator<ncnn::Mat>>::_Vector_impl_data" }
%"struct.std::_Vector_base<ncnn::Mat, std::allocator<ncnn::Mat>>::_Vector_impl_data" = type { ptr, ptr, ptr }
%"class.ncnn::Mat" = type { ptr, ptr, i64, i32, ptr, i32, i32, i32, i32, i32, i64 }

@1 = private unnamed_addr constant %struct.ident_t { i32 0, i32 514, i32 0, i32 22, ptr @0 }, align 8

; Function Attrs: mustprogress nounwind uwtable
define linkonce_odr noundef nofpclass(nan inf) float @_ZSt5roundf(float noundef nofpclass(nan inf) %0) #11 comdat {
  %2 = alloca float, align 4
  store float %0, ptr %2, align 4, !tbaa !49
  %3 = load float, ptr %2, align 4, !tbaa !49
  %4 = call fast float @llvm.round.f32(float %3)
  ret float %4
}

; Function Attrs: inlinehint mustprogress uwtable
define internal noundef signext i8 @_ZN4ncnnL10float2int8Ef(float noundef nofpclass(nan inf) %0) #10 {
  %2 = alloca i8, align 1
  %3 = alloca float, align 4
  %4 = alloca i32, align 4
  %5 = alloca i32, align 4
  store float %0, ptr %3, align 4, !tbaa !49
  call void @llvm.lifetime.start.p0(i64 4, ptr %4) #9
  %6 = load float, ptr %3, align 4, !tbaa !49
  %7 = call fast noundef nofpclass(nan inf) float @_ZSt5roundf(float noundef nofpclass(nan inf) %6)
  %8 = fptosi float %7 to i32
  store i32 %8, ptr %4, align 4, !tbaa !40
  %9 = load i32, ptr %4, align 4, !tbaa !40
  %10 = icmp sgt i32 %9, 127
  br i1 %10, label %11, label %12

11:                                               ; preds = %1
  store i8 127, ptr %2, align 1
  store i32 1, ptr %5, align 4
  br label %19

12:                                               ; preds = %1
  %13 = load i32, ptr %4, align 4, !tbaa !40
  %14 = icmp slt i32 %13, -127
  br i1 %14, label %15, label %16

15:                                               ; preds = %12
  store i8 -127, ptr %2, align 1
  store i32 1, ptr %5, align 4
  br label %19

16:                                               ; preds = %12
  %17 = load i32, ptr %4, align 4, !tbaa !40
  %18 = trunc i32 %17 to i8
  store i8 %18, ptr %2, align 1
  store i32 1, ptr %5, align 4
  br label %19

19:                                               ; preds = %16, %15, %11
  call void @llvm.lifetime.end.p0(i64 4, ptr %4) #9
  %20 = load i8, ptr %2, align 1
  ret i8 %20
}

; Function Attrs: noinline noreturn nounwind uwtable
define linkonce_odr hidden void @__clang_call_terminate(ptr noundef %0) #7 comdat {
  %2 = call ptr @__cxa_begin_catch(ptr %0) #9
  call void @_ZSt9terminatev() #15
  unreachable
}

; Function Attrs: mustprogress uwtable
define internal void @_ZN4ncnnL8quantizeEPKfPafi(ptr noundef %0, ptr noundef %1, float noundef nofpclass(nan inf) %2, i32 noundef %3) #1 {
  %5 = alloca ptr, align 8
  %6 = alloca ptr, align 8
  %7 = alloca float, align 4
  %8 = alloca i32, align 4
  %9 = alloca i32, align 4
  store ptr %0, ptr %5, align 8, !tbaa !46
  store ptr %1, ptr %6, align 8, !tbaa !48
  store float %2, ptr %7, align 4, !tbaa !49
  store i32 %3, ptr %8, align 4, !tbaa !40
  call void @llvm.lifetime.start.p0(i64 4, ptr %9) #9
  store i32 0, ptr %9, align 4, !tbaa !40
  br label %10

10:                                               ; preds = %26, %4
  %11 = load i32, ptr %9, align 4, !tbaa !40
  %12 = load i32, ptr %8, align 4, !tbaa !40
  %13 = icmp slt i32 %11, %12
  br i1 %13, label %15, label %14

14:                                               ; preds = %10
  call void @llvm.lifetime.end.p0(i64 4, ptr %9) #9
  br label %29

15:                                               ; preds = %10
  %16 = load ptr, ptr %5, align 8, !tbaa !46
  %17 = load float, ptr %16, align 4, !tbaa !49
  %18 = load float, ptr %7, align 4, !tbaa !49
  %19 = fmul fast float %17, %18
  %20 = call noundef signext i8 @_ZN4ncnnL10float2int8Ef(float noundef nofpclass(nan inf) %19)
  %21 = load ptr, ptr %6, align 8, !tbaa !48
  store i8 %20, ptr %21, align 1, !tbaa !63
  %22 = load ptr, ptr %5, align 8, !tbaa !46
  %23 = getelementptr inbounds nuw float, ptr %22, i32 1
  store ptr %23, ptr %5, align 8, !tbaa !46
  %24 = load ptr, ptr %6, align 8, !tbaa !48
  %25 = getelementptr inbounds nuw i8, ptr %24, i32 1
  store ptr %25, ptr %6, align 8, !tbaa !48
  br label %26

26:                                               ; preds = %15
  %27 = load i32, ptr %9, align 4, !tbaa !40
  %28 = add nsw i32 %27, 1
  store i32 %28, ptr %9, align 4, !tbaa !40
  br label %10, !llvm.loop !64

29:                                               ; preds = %14
  ret void
}

; Function Attrs: alwaysinline mustprogress nounwind uwtable
define linkonce_odr hidden noundef nonnull align 4 dereferenceable(4) ptr @_ZNK4ncnn3MatixEm(ptr noundef nonnull align 8 dereferenceable(72) %0, i64 noundef %1) #3 comdat align 2 {
  %3 = alloca ptr, align 8
  %4 = alloca i64, align 8
  store ptr %0, ptr %3, align 8, !tbaa !36
  store i64 %1, ptr %4, align 8, !tbaa !62
  %5 = load ptr, ptr %3, align 8
  %6 = getelementptr inbounds nuw %"class.ncnn::Mat", ptr %5, i32 0, i32 0
  %7 = load ptr, ptr %6, align 8, !tbaa !54
  %8 = load i64, ptr %4, align 8, !tbaa !62
  %9 = getelementptr inbounds nuw float, ptr %7, i64 %8
  ret ptr %9
}

; Function Attrs: alwaysinline mustprogress nounwind uwtable
define linkonce_odr hidden noundef ptr @_ZN4ncnn3Mat3rowIaEEPT_i(ptr noundef nonnull align 8 dereferenceable(72) %0, i32 noundef %1) #3 comdat align 2 {
  %3 = alloca ptr, align 8
  %4 = alloca i32, align 4
  store ptr %0, ptr %3, align 8, !tbaa !36
  store i32 %1, ptr %4, align 4, !tbaa !40
  %5 = load ptr, ptr %3, align 8
  %6 = getelementptr inbounds nuw %"class.ncnn::Mat", ptr %5, i32 0, i32 0
  %7 = load ptr, ptr %6, align 8, !tbaa !54
  %8 = getelementptr inbounds nuw %"class.ncnn::Mat", ptr %5, i32 0, i32 6
  %9 = load i32, ptr %8, align 4, !tbaa !41
  %10 = sext i32 %9 to i64
  %11 = load i32, ptr %4, align 4, !tbaa !40
  %12 = sext i32 %11 to i64
  %13 = mul i64 %10, %12
  %14 = getelementptr inbounds nuw %"class.ncnn::Mat", ptr %5, i32 0, i32 2
  %15 = load i64, ptr %14, align 8, !tbaa !56
  %16 = mul i64 %13, %15
  %17 = getelementptr inbounds nuw i8, ptr %7, i64 %16
  ret ptr %17
}

; Function Attrs: alwaysinline mustprogress nounwind uwtable
define linkonce_odr hidden noundef ptr @_ZNK4ncnn3Mat3rowEi(ptr noundef nonnull align 8 dereferenceable(72) %0, i32 noundef %1) #3 comdat align 2 {
  %3 = alloca ptr, align 8
  %4 = alloca i32, align 4
  store ptr %0, ptr %3, align 8, !tbaa !36
  store i32 %1, ptr %4, align 4, !tbaa !40
  %5 = load ptr, ptr %3, align 8
  %6 = getelementptr inbounds nuw %"class.ncnn::Mat", ptr %5, i32 0, i32 0
  %7 = load ptr, ptr %6, align 8, !tbaa !54
  %8 = getelementptr inbounds nuw %"class.ncnn::Mat", ptr %5, i32 0, i32 6
  %9 = load i32, ptr %8, align 4, !tbaa !41
  %10 = sext i32 %9 to i64
  %11 = load i32, ptr %4, align 4, !tbaa !40
  %12 = sext i32 %11 to i64
  %13 = mul i64 %10, %12
  %14 = getelementptr inbounds nuw %"class.ncnn::Mat", ptr %5, i32 0, i32 2
  %15 = load i64, ptr %14, align 8, !tbaa !56
  %16 = mul i64 %13, %15
  %17 = getelementptr inbounds nuw i8, ptr %7, i64 %16
  ret ptr %17
}

; Function Attrs: alwaysinline norecurse nounwind uwtable
define internal void @_ZNK4ncnn8Quantize7forwardERKNS_3MatERS1_RKNS_6OptionE.omp_outlined(ptr noalias noundef %0, ptr noalias noundef %1, ptr noundef nonnull align 4 dereferenceable(4) %2, ptr noundef nonnull align 8 dereferenceable(72) %3, ptr noundef nonnull align 8 dereferenceable(72) %4, ptr noundef %5, ptr noundef nonnull align 4 dereferenceable(4) %6) #8 personality ptr @__gxx_personality_v0 {
  %8 = alloca ptr, align 8
  %9 = alloca ptr, align 8
  %10 = alloca ptr, align 8
  %11 = alloca ptr, align 8
  %12 = alloca ptr, align 8
  %13 = alloca ptr, align 8
  %14 = alloca ptr, align 8
  %15 = alloca ptr, align 8
  %16 = alloca ptr, align 8
  %17 = alloca i32, align 4
  %18 = alloca i32, align 4
  %19 = alloca i32, align 4
  %20 = alloca i32, align 4
  %21 = alloca i32, align 4
  %22 = alloca i32, align 4
  %23 = alloca i32, align 4
  %24 = alloca i32, align 4
  %25 = alloca i32, align 4
  %26 = alloca ptr, align 8
  %27 = alloca ptr, align 8
  %28 = alloca float, align 4
  store ptr %0, ptr %8, align 8, !tbaa !66
  store ptr %1, ptr %9, align 8, !tbaa !66
  store ptr %2, ptr %10, align 8, !tbaa !66
  store ptr %3, ptr %11, align 8, !tbaa !36
  store ptr %4, ptr %12, align 8, !tbaa !36
  store ptr %5, ptr %13, align 8, !tbaa !4
  store ptr %6, ptr %14, align 8, !tbaa !66
  %29 = load ptr, ptr %10, align 8, !tbaa !66
  %30 = load ptr, ptr %11, align 8, !tbaa !36
  %31 = load ptr, ptr %12, align 8, !tbaa !36
  %32 = load ptr, ptr %13, align 8, !tbaa !4
  %33 = load ptr, ptr %14, align 8, !tbaa !66
  store ptr %30, ptr %15, align 8
  store ptr %31, ptr %16, align 8
  call void @llvm.lifetime.start.p0(i64 4, ptr %17) #9
  call void @llvm.lifetime.start.p0(i64 4, ptr %18) #9
  %34 = load i32, ptr %29, align 4, !tbaa !40
  store i32 %34, ptr %18, align 4, !tbaa !40
  call void @llvm.lifetime.start.p0(i64 4, ptr %19) #9
  %35 = load i32, ptr %18, align 4, !tbaa !40
  %36 = sub nsw i32 %35, 0
  %37 = sdiv i32 %36, 1
  %38 = sub nsw i32 %37, 1
  store i32 %38, ptr %19, align 4, !tbaa !40
  call void @llvm.lifetime.start.p0(i64 4, ptr %20) #9
  store i32 0, ptr %20, align 4, !tbaa !40
  call void @llvm.lifetime.end.p0(i64 4, ptr %20) #9
  %39 = load i32, ptr %18, align 4, !tbaa !40
  %40 = icmp slt i32 0, %39
  br i1 %40, label %41, label %102

41:                                               ; preds = %7
  call void @llvm.lifetime.start.p0(i64 4, ptr %21) #9
  store i32 0, ptr %21, align 4, !tbaa !40
  call void @llvm.lifetime.start.p0(i64 4, ptr %22) #9
  %42 = load i32, ptr %19, align 4, !tbaa !40
  store i32 %42, ptr %22, align 4, !tbaa !40
  call void @llvm.lifetime.start.p0(i64 4, ptr %23) #9
  store i32 1, ptr %23, align 4, !tbaa !40
  call void @llvm.lifetime.start.p0(i64 4, ptr %24) #9
  store i32 0, ptr %24, align 4, !tbaa !40
  call void @llvm.lifetime.start.p0(i64 4, ptr %25) #9
  %43 = load ptr, ptr %8, align 8
  %44 = load i32, ptr %43, align 4, !tbaa !40
  call void @__kmpc_for_static_init_4(ptr @1, i32 %44, i32 34, ptr %24, ptr %21, ptr %22, ptr %23, i32 1, i32 1)
  %45 = load i32, ptr %22, align 4, !tbaa !40
  %46 = load i32, ptr %19, align 4, !tbaa !40
  %47 = icmp sgt i32 %45, %46
  br i1 %47, label %48, label %50

48:                                               ; preds = %41
  %49 = load i32, ptr %19, align 4, !tbaa !40
  br label %52

50:                                               ; preds = %41
  %51 = load i32, ptr %22, align 4, !tbaa !40
  br label %52

52:                                               ; preds = %50, %48
  %53 = phi i32 [ %49, %48 ], [ %51, %50 ]
  store i32 %53, ptr %22, align 4, !tbaa !40
  %54 = load i32, ptr %21, align 4, !tbaa !40
  store i32 %54, ptr %17, align 4, !tbaa !40
  br label %55

55:                                               ; preds = %95, %52
  %56 = load i32, ptr %17, align 4, !tbaa !40
  %57 = load i32, ptr %22, align 4, !tbaa !40
  %58 = icmp sle i32 %56, %57
  br i1 %58, label %60, label %59

59:                                               ; preds = %55
  br label %98

60:                                               ; preds = %55
  %61 = load i32, ptr %17, align 4, !tbaa !40
  %62 = mul nsw i32 %61, 1
  %63 = add nsw i32 0, %62
  store i32 %63, ptr %25, align 4, !tbaa !40
  call void @llvm.lifetime.start.p0(i64 8, ptr %26) #9
  %64 = load ptr, ptr %15, align 8, !tbaa !36
  %65 = load i32, ptr %25, align 4, !tbaa !40
  %66 = invoke noundef ptr @_ZNK4ncnn3Mat3rowEi(ptr noundef nonnull align 8 dereferenceable(72) %64, i32 noundef %65)
          to label %67 unwind label %103

67:                                               ; preds = %60
  store ptr %66, ptr %26, align 8, !tbaa !46
  call void @llvm.lifetime.start.p0(i64 8, ptr %27) #9
  %68 = load ptr, ptr %16, align 8, !tbaa !36
  %69 = load i32, ptr %25, align 4, !tbaa !40
  %70 = invoke noundef ptr @_ZN4ncnn3Mat3rowIaEEPT_i(ptr noundef nonnull align 8 dereferenceable(72) %68, i32 noundef %69)
          to label %71 unwind label %103

71:                                               ; preds = %67
  store ptr %70, ptr %27, align 8, !tbaa !48
  call void @llvm.lifetime.start.p0(i64 4, ptr %28) #9
  %72 = getelementptr inbounds nuw %"class.ncnn::Quantize", ptr %32, i32 0, i32 1
  %73 = load i32, ptr %72, align 8, !tbaa !13
  %74 = icmp eq i32 %73, 1
  br i1 %74, label %75, label %80

75:                                               ; preds = %71
  %76 = getelementptr inbounds nuw %"class.ncnn::Quantize", ptr %32, i32 0, i32 2
  %77 = invoke noundef nonnull align 4 dereferenceable(4) ptr @_ZNK4ncnn3MatixEm(ptr noundef nonnull align 8 dereferenceable(72) %76, i64 noundef 0)
          to label %78 unwind label %103

78:                                               ; preds = %75
  %79 = load float, ptr %77, align 4, !tbaa !49
  br label %87

80:                                               ; preds = %71
  %81 = getelementptr inbounds nuw %"class.ncnn::Quantize", ptr %32, i32 0, i32 2
  %82 = load i32, ptr %25, align 4, !tbaa !40
  %83 = sext i32 %82 to i64
  %84 = invoke noundef nonnull align 4 dereferenceable(4) ptr @_ZNK4ncnn3MatixEm(ptr noundef nonnull align 8 dereferenceable(72) %81, i64 noundef %83)
          to label %85 unwind label %103

85:                                               ; preds = %80
  %86 = load float, ptr %84, align 4, !tbaa !49
  br label %87

87:                                               ; preds = %85, %78
  %88 = phi fast float [ %79, %78 ], [ %86, %85 ]
  store float %88, ptr %28, align 4, !tbaa !49
  %89 = load ptr, ptr %26, align 8, !tbaa !46
  %90 = load ptr, ptr %27, align 8, !tbaa !48
  %91 = load float, ptr %28, align 4, !tbaa !49
  %92 = load i32, ptr %33, align 4, !tbaa !40
  invoke void @_ZN4ncnnL8quantizeEPKfPafi(ptr noundef %89, ptr noundef %90, float noundef nofpclass(nan inf) %91, i32 noundef %92)
          to label %93 unwind label %103

93:                                               ; preds = %87
  call void @llvm.lifetime.end.p0(i64 4, ptr %28) #9
  call void @llvm.lifetime.end.p0(i64 8, ptr %27) #9
  call void @llvm.lifetime.end.p0(i64 8, ptr %26) #9
  br label %94

94:                                               ; preds = %93
  br label %95

95:                                               ; preds = %94
  %96 = load i32, ptr %17, align 4, !tbaa !40
  %97 = add nsw i32 %96, 1
  store i32 %97, ptr %17, align 4, !tbaa !40
  br label %55

98:                                               ; preds = %59
  br label %99

99:                                               ; preds = %98
  %100 = load ptr, ptr %8, align 8
  %101 = load i32, ptr %100, align 4, !tbaa !40
  call void @__kmpc_for_static_fini(ptr @1, i32 %101)
  call void @llvm.lifetime.end.p0(i64 4, ptr %25) #9
  call void @llvm.lifetime.end.p0(i64 4, ptr %24) #9
  call void @llvm.lifetime.end.p0(i64 4, ptr %23) #9
  call void @llvm.lifetime.end.p0(i64 4, ptr %22) #9
  call void @llvm.lifetime.end.p0(i64 4, ptr %21) #9
  br label %102

102:                                              ; preds = %99, %7
  call void @llvm.lifetime.end.p0(i64 4, ptr %19) #9
  call void @llvm.lifetime.end.p0(i64 4, ptr %18) #9
  call void @llvm.lifetime.end.p0(i64 4, ptr %17) #9
  ret void

103:                                              ; preds = %87, %80, %75, %67, %60
  %104 = landingpad { ptr, i32 }
          catch ptr null
  %105 = extractvalue { ptr, i32 } %104, 0
  call void @__clang_call_terminate(ptr %105) #15
  unreachable
}