; Function Attrs: alwaysinline norecurse nounwind uwtable
define internal void @_ZNK4ncnn8Quantize7forwardERKNS_3MatERS1_RKNS_6OptionE.omp_outlined(ptr noalias noundef readonly captures(none) %0, ptr noalias readnone captures(none) %1, ptr noundef nonnull readonly align 4 captures(none) dereferenceable(4) %2, ptr noundef nonnull readonly align 8 captures(none) dereferenceable(72) %3, ptr noundef nonnull readonly align 8 captures(none) dereferenceable(72) %4, ptr noundef readonly captures(none) %5, ptr noundef nonnull readonly align 4 captures(none) dereferenceable(4) %6) #8 personality ptr @__gxx_personality_v0 {
  %8 = alloca i32, align 4
  %9 = alloca i32, align 4
  %10 = alloca i32, align 4
  %11 = alloca i32, align 4
  %12 = load i32, ptr %2, align 4, !tbaa !41
  %13 = icmp sgt i32 %12, 0
  br i1 %13, label %14, label %58

14:                                               ; preds = %7
  %15 = add nsw i32 %12, -1
  call void @llvm.lifetime.start.p0(i64 4, ptr nonnull %8) #9
  store i32 0, ptr %8, align 4, !tbaa !41
  call void @llvm.lifetime.start.p0(i64 4, ptr nonnull %9) #9
  store i32 %15, ptr %9, align 4, !tbaa !41
  call void @llvm.lifetime.start.p0(i64 4, ptr nonnull %10) #9
  store i32 1, ptr %10, align 4, !tbaa !41
  call void @llvm.lifetime.start.p0(i64 4, ptr nonnull %11) #9
  store i32 0, ptr %11, align 4, !tbaa !41
  %16 = load i32, ptr %0, align 4, !tbaa !41
  call void @__kmpc_for_static_init_4(ptr nonnull @1, i32 %16, i32 34, ptr nonnull %11, ptr nonnull %8, ptr nonnull %9, ptr nonnull %10, i32 1, i32 1)
  %17 = load i32, ptr %9, align 4, !tbaa !41
  %18 = call i32 @llvm.smin.i32(i32 %17, i32 %15)
  store i32 %18, ptr %9, align 4, !tbaa !41
  %19 = load i32, ptr %8, align 4, !tbaa !41
  %.not22 = icmp sgt i32 %19, %18
  br i1 %.not22, label %._crit_edge, label %.lr.ph

.lr.ph:                                           ; preds = %14
  %20 = getelementptr inbounds nuw i8, ptr %3, i64 44
  %21 = getelementptr inbounds nuw i8, ptr %3, i64 16
  %22 = getelementptr inbounds nuw i8, ptr %4, i64 44
  %23 = getelementptr inbounds nuw i8, ptr %4, i64 16
  %24 = getelementptr inbounds nuw i8, ptr %5, i64 208
  %25 = getelementptr inbounds nuw i8, ptr %5, i64 216
  %26 = sext i32 %19 to i64
  br label %27

27:                                               ; preds = %.lr.ph, %_ZN4ncnnL8quantizeEPKfPafi.exit
  %28 = phi i32 [ %18, %.lr.ph ], [ %56, %_ZN4ncnnL8quantizeEPKfPafi.exit ]
  %indvars.iv = phi i64 [ %26, %.lr.ph ], [ %indvars.iv.next, %_ZN4ncnnL8quantizeEPKfPafi.exit ]
  %29 = load i32, ptr %24, align 8, !tbaa !18
  %30 = icmp eq i32 %29, 1
  %31 = load ptr, ptr %25, align 8, !tbaa !16
  %.in.idx = select i1 %30, i64 0, i64 %indvars.iv
  %.in = getelementptr inbounds nuw float, ptr %31, i64 %.in.idx
  %32 = load float, ptr %.in, align 4, !tbaa !44
  %33 = load i32, ptr %6, align 4, !tbaa !41
  %34 = icmp sgt i32 %33, 0
  br i1 %34, label %.lr.ph.i.preheader, label %_ZN4ncnnL8quantizeEPKfPafi.exit

.lr.ph.i.preheader:                               ; preds = %27
  %35 = load ptr, ptr %4, align 8, !tbaa !16
  %36 = load i32, ptr %22, align 4, !tbaa !37
  %37 = sext i32 %36 to i64
  %38 = mul nsw i64 %indvars.iv, %37
  %39 = load i64, ptr %23, align 8, !tbaa !34
  %40 = mul i64 %38, %39
  %41 = getelementptr inbounds nuw i8, ptr %35, i64 %40
  %42 = load ptr, ptr %3, align 8, !tbaa !16
  %43 = load i32, ptr %20, align 4, !tbaa !37
  %44 = sext i32 %43 to i64
  %45 = mul nsw i64 %indvars.iv, %44
  %46 = load i64, ptr %21, align 8, !tbaa !34
  %47 = mul i64 %45, %46
  %48 = getelementptr inbounds nuw i8, ptr %42, i64 %47
  br label %.lr.ph.i

.lr.ph.i:                                         ; preds = %.lr.ph.i.preheader, %.lr.ph.i
  %.011.i = phi i32 [ %55, %.lr.ph.i ], [ 0, %.lr.ph.i.preheader ]
  %.0710.i = phi ptr [ %53, %.lr.ph.i ], [ %48, %.lr.ph.i.preheader ]
  %.089.i = phi ptr [ %54, %.lr.ph.i ], [ %41, %.lr.ph.i.preheader ]
  %49 = load float, ptr %.0710.i, align 4, !tbaa !44
  %50 = fmul fast float %49, %32
  %51 = call fast noundef float @llvm.round.f32(float %50)
  %52 = fptosi float %51 to i32
  %spec.select5.i.i = call i32 @llvm.smax.i32(i32 %52, i32 -127)
  %.06.i.i = call i32 @llvm.smin.i32(i32 %spec.select5.i.i, i32 127)
  %.0.i.i = trunc nsw i32 %.06.i.i to i8
  store i8 %.0.i.i, ptr %.089.i, align 1, !tbaa !46
  %53 = getelementptr inbounds nuw i8, ptr %.0710.i, i64 4
  %54 = getelementptr inbounds nuw i8, ptr %.089.i, i64 1
  %55 = add nuw nsw i32 %.011.i, 1
  %exitcond.not.i = icmp eq i32 %55, %33
  br i1 %exitcond.not.i, label %_ZN4ncnnL8quantizeEPKfPafi.exit.loopexit, label %.lr.ph.i, !llvm.loop !47

_ZN4ncnnL8quantizeEPKfPafi.exit.loopexit:         ; preds = %.lr.ph.i
  %.pre = load i32, ptr %9, align 4, !tbaa !41
  br label %_ZN4ncnnL8quantizeEPKfPafi.exit

_ZN4ncnnL8quantizeEPKfPafi.exit:                  ; preds = %_ZN4ncnnL8quantizeEPKfPafi.exit.loopexit, %27
  %56 = phi i32 [ %.pre, %_ZN4ncnnL8quantizeEPKfPafi.exit.loopexit ], [ %28, %27 ]
  %indvars.iv.next = add nsw i64 %indvars.iv, 1
  %57 = sext i32 %56 to i64
  %.not.not = icmp slt i64 %indvars.iv, %57
  br i1 %.not.not, label %27, label %._crit_edge

._crit_edge:                                      ; preds = %_ZN4ncnnL8quantizeEPKfPafi.exit, %14
  call void @__kmpc_for_static_fini(ptr nonnull @1, i32 %16)
  call void @llvm.lifetime.end.p0(i64 4, ptr nonnull %11) #9
  call void @llvm.lifetime.end.p0(i64 4, ptr nonnull %10) #9
  call void @llvm.lifetime.end.p0(i64 4, ptr nonnull %9) #9
  call void @llvm.lifetime.end.p0(i64 4, ptr nonnull %8) #9
  br label %58

58:                                               ; preds = %._crit_edge, %7
  ret void
}